-----BEGIN RSA PRIVATE KEY-----
MIICXAIBAAKBgQDHZG78iwkkxJeq3ZPuQwY9DfdcNCvHXayW+5p5VUULV50ohJKt
JJzhp5ysq4VH7q/dmOnMnbYTACnqVSlph88zRdQJd/g0h6T4DyWa5Jxe+R1hwLWV
fgeSXstCK8m9SwxKqnqA5mPZxfARXg3r4XWkUK2A1lWIXCkZU3MMD4JJ4QIDAQAB
AoGAGgyi+1dmwGj2r5n3I5+aBwv2DxO5zHgOfkMssUFUneC6ZXq8duZboJd3Po/B
/93NGBRMJzFLgjv5PeYWXPUjOoJT7eg0aDJKX/uMKSvzhyIL/bUJPfyo2GCmkAr5
CF5EBFFjlsui2kSFusxbQmyzZkkIl3OYdlTBdQFsmEROk8kCQQD3aW1ZPbDkSxsi
09VZBWVW95LojcxYQeqjPTs8EAB2jKmR4aw8KGKCz+yBGwiSdukDZ/p3IftuifHk
J+3a6kqnAkEAzlBKjM8xVWprTp/3p1DMYNA+KNsXuf08xGB/zegpU561FjUzK7U4
QKyDSIaRgSv4WAJbIauwaZdydM6Q0DnANwJBAKEQGQeHiaiU3E2H6dPSF27OLO0H
ooeyIbWzHuSy5hpG5/z4FM/02myePzCtEJ+ImZiGEB+OF8iWNMp60/U3oPECQAoR
RPIGEkQ2wzG9AJq7iJ2Yy8+2kTvULajvhI0JrSqVbgS9Z9fUKgCN6oIZfvQsrxus
UcIc3KjqaP1mLw7aIpUCQH5S0B+GOwKa8+RbuRcgBvksqkRwRZn6jawoNJJSBCDn
gQJ5B9PvJXppTsbnulSD2srhUqCR1pzGfnl8bYV8b8Q=
-----END RSA PRIVATE KEY-----

Certificate:
    Data:
        Version: 3 (0x2)
        Serial Number: 5 (0x5)
    Signature Algorithm: sha1WithRSAEncryption
        Issuer: C=FR, ST=Some-State, L=Grenoble, O=Belledonne Communications, OU=LAB, CN=Jehan Monnier/emailAddress=jehan.monnier@belledonne-communications.com
        Validity
            Not Before: Sep 23 15:58:58 2013 GMT
            Not After : Sep 23 15:58:58 2014 GMT
        Subject: C=FR, ST=France, L=Grenoble, O=Belledonne Communications, OU=LAB, CN=See altname for DNS name/emailAddress=jehan.monnier@belledonne-communications.com
        Subject Public Key Info:
            Public Key Algorithm: rsaEncryption
                Public-Key: (1024 bit)
                Modulus:
                    00:c7:64:6e:fc:8b:09:24:c4:97:aa:dd:93:ee:43:
                    06:3d:0d:f7:5c:34:2b:c7:5d:ac:96:fb:9a:79:55:
                    45:0b:57:9d:28:84:92:ad:24:9c:e1:a7:9c:ac:ab:
                    85:47:ee:af:dd:98:e9:cc:9d:b6:13:00:29:ea:55:
                    29:69:87:cf:33:45:d4:09:77:f8:34:87:a4:f8:0f:
                    25:9a:e4:9c:5e:f9:1d:61:c0:b5:95:7e:07:92:5e:
                    cb:42:2b:c9:bd:4b:0c:4a:aa:7a:80:e6:63:d9:c5:
                    f0:11:5e:0d:eb:e1:75:a4:50:ad:80:d6:55:88:5c:
                    29:19:53:73:0c:0f:82:49:e1
                Exponent: 65537 (0x10001)
        X509v3 extensions:
            X509v3 Basic Constraints: 
                CA:FALSE
            X509v3 Key Usage: 
                Digital Signature, Non Repudiation, Key Encipherment
            X509v3 Subject Alternative Name: 
                DNS:altname.linphone.org, DNS:*.wildcard2.linphone.org
    Signature Algorithm: sha1WithRSAEncryption
         21:05:d3:36:82:5d:f4:f4:70:71:17:ac:06:12:49:0c:d6:c3:
         21:07:9c:2f:79:c8:14:da:e5:3a:92:04:22:5b:74:cf:53:3c:
         95:33:51:93:66:04:59:c6:3d:dd:22:cf:3f:f8:0e:24:93:6b:
         2a:02:f7:bf:ba:89:1b:72:9a:d4:1b:bf:22:3d:08:51:13:a4:
         bf:43:d2:89:a1:c5:f2:e3:04:24:1e:d4:33:64:06:83:2d:b6:
         66:34:16:a9:f4:8d:6f:3f:71:86:ab:73:19:36:ae:43:29:7e:
         9d:6c:35:3a:75:f4:22:8b:c5:e3:1e:ee:c1:0d:d7:63:cc:95:
         4a:6a
-----BEGIN CERTIFICATE-----
MIIDSjCCArOgAwIBAgIBBTANBgkqhkiG9w0BAQUFADCBuzELMAkGA1UEBhMCRlIx
EzARBgNVBAgMClNvbWUtU3RhdGUxETAPBgNVBAcMCEdyZW5vYmxlMSIwIAYDVQQK
DBlCZWxsZWRvbm5lIENvbW11bmljYXRpb25zMQwwCgYDVQQLDANMQUIxFjAUBgNV
BAMMDUplaGFuIE1vbm5pZXIxOjA4BgkqhkiG9w0BCQEWK2plaGFuLm1vbm5pZXJA
YmVsbGVkb25uZS1jb21tdW5pY2F0aW9ucy5jb20wHhcNMTMwOTIzMTU1ODU4WhcN
MTQwOTIzMTU1ODU4WjCBwjELMAkGA1UEBhMCRlIxDzANBgNVBAgMBkZyYW5jZTER
MA8GA1UEBwwIR3Jlbm9ibGUxIjAgBgNVBAoMGUJlbGxlZG9ubmUgQ29tbXVuaWNh
dGlvbnMxDDAKBgNVBAsMA0xBQjEhMB8GA1UEAwwYU2VlIGFsdG5hbWUgZm9yIERO
UyBuYW1lMTowOAYJKoZIhvcNAQkBFitqZWhhbi5tb25uaWVyQGJlbGxlZG9ubmUt
Y29tbXVuaWNhdGlvbnMuY29tMIGfMA0GCSqGSIb3DQEBAQUAA4GNADCBiQKBgQDH
ZG78iwkkxJeq3ZPuQwY9DfdcNCvHXayW+5p5VUULV50ohJKtJJzhp5ysq4VH7q/d
mOnMnbYTACnqVSlph88zRdQJd/g0h6T4DyWa5Jxe+R1hwLWVfgeSXstCK8m9SwxK
qnqA5mPZxfARXg3r4XWkUK2A1lWIXCkZU3MMD4JJ4QIDAQABo1UwUzAJBgNVHRME
AjAAMAsGA1UdDwQEAwIF4DA5BgNVHREEMjAwghRhbHRuYW1lLmxpbnBob25lLm9y
Z4IYKi53aWxkY2FyZDIubGlucGhvbmUub3JnMA0GCSqGSIb3DQEBBQUAA4GBACEF
0zaCXfT0cHEXrAYSSQzWwyEHnC95yBTa5TqSBCJbdM9TPJUzUZNmBFnGPd0izz/4
DiSTayoC97+6iRtymtQbvyI9CFETpL9D0omhxfLjBCQe1DNkBoMttmY0Fqn0jW8/
cYarcxk2rkMpfp1sNTp19CKLxeMe7sEN12PMlUpq
-----END CERTIFICATE-----
