-----BEGIN RSA PRIVATE KEY-----
MIICXAIBAAKBgQDHZG78iwkkxJeq3ZPuQwY9DfdcNCvHXayW+5p5VUULV50ohJKt
JJzhp5ysq4VH7q/dmOnMnbYTACnqVSlph88zRdQJd/g0h6T4DyWa5Jxe+R1hwLWV
fgeSXstCK8m9SwxKqnqA5mPZxfARXg3r4XWkUK2A1lWIXCkZU3MMD4JJ4QIDAQAB
AoGAGgyi+1dmwGj2r5n3I5+aBwv2DxO5zHgOfkMssUFUneC6ZXq8duZboJd3Po/B
/93NGBRMJzFLgjv5PeYWXPUjOoJT7eg0aDJKX/uMKSvzhyIL/bUJPfyo2GCmkAr5
CF5EBFFjlsui2kSFusxbQmyzZkkIl3OYdlTBdQFsmEROk8kCQQD3aW1ZPbDkSxsi
09VZBWVW95LojcxYQeqjPTs8EAB2jKmR4aw8KGKCz+yBGwiSdukDZ/p3IftuifHk
J+3a6kqnAkEAzlBKjM8xVWprTp/3p1DMYNA+KNsXuf08xGB/zegpU561FjUzK7U4
QKyDSIaRgSv4WAJbIauwaZdydM6Q0DnANwJBAKEQGQeHiaiU3E2H6dPSF27OLO0H
ooeyIbWzHuSy5hpG5/z4FM/02myePzCtEJ+ImZiGEB+OF8iWNMp60/U3oPECQAoR
RPIGEkQ2wzG9AJq7iJ2Yy8+2kTvULajvhI0JrSqVbgS9Z9fUKgCN6oIZfvQsrxus
UcIc3KjqaP1mLw7aIpUCQH5S0B+GOwKa8+RbuRcgBvksqkRwRZn6jawoNJJSBCDn
gQJ5B9PvJXppTsbnulSD2srhUqCR1pzGfnl8bYV8b8Q=
-----END RSA PRIVATE KEY-----
Certificate:
    Data:
        Version: 3 (0x2)
        Serial Number: 9 (0x9)
    Signature Algorithm: sha1WithRSAEncryption
        Issuer: C=FR, ST=Some-State, L=Grenoble, O=Belledonne Communications, OU=LAB, CN=Jehan Monnier/emailAddress=jehan.monnier@belledonne-communications.com
        Validity
            Not Before: Sep 25 16:12:35 2014 GMT
            Not After : Sep 22 16:12:35 2024 GMT
        Subject: C=FR, ST=France, L=Grenoble, O=Belledonne Communications, OU=LAB, CN=Jehan Monnier/emailAddress=jehan.monnier@belledonne-communications.com
        Subject Public Key Info:
            Public Key Algorithm: rsaEncryption
                Public-Key: (1024 bit)
                Modulus:
                    00:c7:64:6e:fc:8b:09:24:c4:97:aa:dd:93:ee:43:
                    06:3d:0d:f7:5c:34:2b:c7:5d:ac:96:fb:9a:79:55:
                    45:0b:57:9d:28:84:92:ad:24:9c:e1:a7:9c:ac:ab:
                    85:47:ee:af:dd:98:e9:cc:9d:b6:13:00:29:ea:55:
                    29:69:87:cf:33:45:d4:09:77:f8:34:87:a4:f8:0f:
                    25:9a:e4:9c:5e:f9:1d:61:c0:b5:95:7e:07:92:5e:
                    cb:42:2b:c9:bd:4b:0c:4a:aa:7a:80:e6:63:d9:c5:
                    f0:11:5e:0d:eb:e1:75:a4:50:ad:80:d6:55:88:5c:
                    29:19:53:73:0c:0f:82:49:e1
                Exponent: 65537 (0x10001)
        X509v3 extensions:
            X509v3 Basic Constraints: 
                CA:FALSE
            X509v3 Key Usage: 
                Digital Signature, Non Repudiation, Key Encipherment
            X509v3 Subject Alternative Name: 
                DNS:altname.linphone.org, DNS:*.wildcard2.linphone.org
    Signature Algorithm: sha1WithRSAEncryption
         56:f5:23:64:4c:8d:85:6e:05:d6:42:a3:41:b2:6a:ab:a1:cd:
         be:ae:4a:38:c5:23:4c:62:2c:06:4d:49:b7:fc:ad:86:1d:9b:
         c0:7e:33:80:fa:7d:31:8b:ca:9c:28:44:b2:1c:f1:ed:73:5b:
         d3:80:72:b0:6c:0b:20:2b:e5:2b:02:c6:be:14:ad:55:34:2f:
         6f:8e:bb:7b:61:ce:9c:af:85:a7:b0:cd:d1:4e:1e:17:e9:7e:
         61:ed:50:60:9a:de:d0:7a:6d:a5:ee:04:9a:5c:41:94:21:e5:
         05:61:a8:17:ab:eb:b4:cc:7f:90:9b:3a:0e:ca:31:fb:65:40:
         11:2d
-----BEGIN CERTIFICATE-----
MIIDPzCCAqigAwIBAgIBCTANBgkqhkiG9w0BAQUFADCBuzELMAkGA1UEBhMCRlIx
EzARBgNVBAgMClNvbWUtU3RhdGUxETAPBgNVBAcMCEdyZW5vYmxlMSIwIAYDVQQK
DBlCZWxsZWRvbm5lIENvbW11bmljYXRpb25zMQwwCgYDVQQLDANMQUIxFjAUBgNV
BAMMDUplaGFuIE1vbm5pZXIxOjA4BgkqhkiG9w0BCQEWK2plaGFuLm1vbm5pZXJA
YmVsbGVkb25uZS1jb21tdW5pY2F0aW9ucy5jb20wHhcNMTQwOTI1MTYxMjM1WhcN
MjQwOTIyMTYxMjM1WjCBtzELMAkGA1UEBhMCRlIxDzANBgNVBAgMBkZyYW5jZTER
MA8GA1UEBwwIR3Jlbm9ibGUxIjAgBgNVBAoMGUJlbGxlZG9ubmUgQ29tbXVuaWNh
dGlvbnMxDDAKBgNVBAsMA0xBQjEWMBQGA1UEAwwNSmVoYW4gTW9ubmllcjE6MDgG
CSqGSIb3DQEJARYramVoYW4ubW9ubmllckBiZWxsZWRvbm5lLWNvbW11bmljYXRp
b25zLmNvbTCBnzANBgkqhkiG9w0BAQEFAAOBjQAwgYkCgYEAx2Ru/IsJJMSXqt2T
7kMGPQ33XDQrx12slvuaeVVFC1edKISSrSSc4aecrKuFR+6v3ZjpzJ22EwAp6lUp
aYfPM0XUCXf4NIek+A8lmuScXvkdYcC1lX4Hkl7LQivJvUsMSqp6gOZj2cXwEV4N
6+F1pFCtgNZViFwpGVNzDA+CSeECAwEAAaNVMFMwCQYDVR0TBAIwADALBgNVHQ8E
BAMCBeAwOQYDVR0RBDIwMIIUYWx0bmFtZS5saW5waG9uZS5vcmeCGCoud2lsZGNh
cmQyLmxpbnBob25lLm9yZzANBgkqhkiG9w0BAQUFAAOBgQBW9SNkTI2FbgXWQqNB
smqroc2+rko4xSNMYiwGTUm3/K2GHZvAfjOA+n0xi8qcKESyHPHtc1vTgHKwbAsg
K+UrAsa+FK1VNC9vjrt7Yc6cr4WnsM3RTh4X6X5h7VBgmt7Qem2l7gSaXEGUIeUF
YagXq+u0zH+QmzoOyjH7ZUARLQ==
-----END CERTIFICATE-----
