-----BEGIN RSA PRIVATE KEY-----
MIICXAIBAAKBgQDHZG78iwkkxJeq3ZPuQwY9DfdcNCvHXayW+5p5VUULV50ohJKt
JJzhp5ysq4VH7q/dmOnMnbYTACnqVSlph88zRdQJd/g0h6T4DyWa5Jxe+R1hwLWV
fgeSXstCK8m9SwxKqnqA5mPZxfARXg3r4XWkUK2A1lWIXCkZU3MMD4JJ4QIDAQAB
AoGAGgyi+1dmwGj2r5n3I5+aBwv2DxO5zHgOfkMssUFUneC6ZXq8duZboJd3Po/B
/93NGBRMJzFLgjv5PeYWXPUjOoJT7eg0aDJKX/uMKSvzhyIL/bUJPfyo2GCmkAr5
CF5EBFFjlsui2kSFusxbQmyzZkkIl3OYdlTBdQFsmEROk8kCQQD3aW1ZPbDkSxsi
09VZBWVW95LojcxYQeqjPTs8EAB2jKmR4aw8KGKCz+yBGwiSdukDZ/p3IftuifHk
J+3a6kqnAkEAzlBKjM8xVWprTp/3p1DMYNA+KNsXuf08xGB/zegpU561FjUzK7U4
QKyDSIaRgSv4WAJbIauwaZdydM6Q0DnANwJBAKEQGQeHiaiU3E2H6dPSF27OLO0H
ooeyIbWzHuSy5hpG5/z4FM/02myePzCtEJ+ImZiGEB+OF8iWNMp60/U3oPECQAoR
RPIGEkQ2wzG9AJq7iJ2Yy8+2kTvULajvhI0JrSqVbgS9Z9fUKgCN6oIZfvQsrxus
UcIc3KjqaP1mLw7aIpUCQH5S0B+GOwKa8+RbuRcgBvksqkRwRZn6jawoNJJSBCDn
gQJ5B9PvJXppTsbnulSD2srhUqCR1pzGfnl8bYV8b8Q=
-----END RSA PRIVATE KEY-----

Certificate:
    Data:
        Version: 3 (0x2)
        Serial Number: 6 (0x6)
    Signature Algorithm: sha1WithRSAEncryption
        Issuer: C=FR, ST=Some-State, L=Grenoble, O=Belledonne Communications, OU=LAB, CN=Jehan Monnier/emailAddress=jehan.monnier@belledonne-communications.com
        Validity
            Not Before: Sep 23 16:13:11 2013 GMT
            Not After : Sep 21 16:13:11 2023 GMT
        Subject: C=FR, ST=France, L=Grenoble, O=Belledonne Communications, OU=LAB, CN=sip2.linphone.org, CN=*.wildcard1.linphone.org/emailAddress=jehan.monnier@belledonne-communications.com
        Subject Public Key Info:
            Public Key Algorithm: rsaEncryption
                Public-Key: (1024 bit)
                Modulus:
                    00:c7:64:6e:fc:8b:09:24:c4:97:aa:dd:93:ee:43:
                    06:3d:0d:f7:5c:34:2b:c7:5d:ac:96:fb:9a:79:55:
                    45:0b:57:9d:28:84:92:ad:24:9c:e1:a7:9c:ac:ab:
                    85:47:ee:af:dd:98:e9:cc:9d:b6:13:00:29:ea:55:
                    29:69:87:cf:33:45:d4:09:77:f8:34:87:a4:f8:0f:
                    25:9a:e4:9c:5e:f9:1d:61:c0:b5:95:7e:07:92:5e:
                    cb:42:2b:c9:bd:4b:0c:4a:aa:7a:80:e6:63:d9:c5:
                    f0:11:5e:0d:eb:e1:75:a4:50:ad:80:d6:55:88:5c:
                    29:19:53:73:0c:0f:82:49:e1
                Exponent: 65537 (0x10001)
        X509v3 extensions:
            X509v3 Basic Constraints: 
                CA:FALSE
            Netscape Comment: 
                OpenSSL Generated Certificate
            X509v3 Subject Key Identifier: 
                32:19:16:F0:DD:2C:34:8F:FE:12:5D:4F:E0:0C:EE:C5:06:C8:B1:8C
            X509v3 Authority Key Identifier: 
                keyid:06:5F:5D:C7:16:AF:62:F8:2D:6E:71:03:88:A0:D6:1D:2B:04:7F:BA

    Signature Algorithm: sha1WithRSAEncryption
         af:2e:d2:9a:b9:e0:ca:c8:e3:25:eb:30:0b:5e:02:e9:43:2d:
         84:09:11:d1:be:8e:a4:86:bf:c7:19:aa:18:c3:55:b2:07:c5:
         68:ff:c6:39:f7:2b:da:27:85:34:8b:7b:6c:92:8f:ba:aa:9d:
         44:f3:0c:47:88:7a:0c:b1:e0:c7:6f:eb:af:d2:ab:d0:6d:25:
         d5:ff:40:37:69:2b:bd:f2:6e:4a:42:32:29:98:27:c7:ec:34:
         25:eb:22:6f:83:50:82:1c:08:88:77:ec:31:82:c2:0c:77:b1:
         2b:c9:7d:6c:ff:95:d0:10:cf:8e:9f:2e:eb:a1:a6:40:fc:c0:
         ec:83
-----BEGIN CERTIFICATE-----
MIIDjDCCAvWgAwIBAgIBBjANBgkqhkiG9w0BAQUFADCBuzELMAkGA1UEBhMCRlIx
EzARBgNVBAgMClNvbWUtU3RhdGUxETAPBgNVBAcMCEdyZW5vYmxlMSIwIAYDVQQK
DBlCZWxsZWRvbm5lIENvbW11bmljYXRpb25zMQwwCgYDVQQLDANMQUIxFjAUBgNV
BAMMDUplaGFuIE1vbm5pZXIxOjA4BgkqhkiG9w0BCQEWK2plaGFuLm1vbm5pZXJA
YmVsbGVkb25uZS1jb21tdW5pY2F0aW9ucy5jb20wHhcNMTMwOTIzMTYxMzExWhcN
MjMwOTIxMTYxMzExWjCB3jELMAkGA1UEBhMCRlIxDzANBgNVBAgMBkZyYW5jZTER
MA8GA1UEBwwIR3Jlbm9ibGUxIjAgBgNVBAoMGUJlbGxlZG9ubmUgQ29tbXVuaWNh
dGlvbnMxDDAKBgNVBAsMA0xBQjEaMBgGA1UEAwwRc2lwMi5saW5waG9uZS5vcmcx
ITAfBgNVBAMMGCoud2lsZGNhcmQxLmxpbnBob25lLm9yZzE6MDgGCSqGSIb3DQEJ
ARYramVoYW4ubW9ubmllckBiZWxsZWRvbm5lLWNvbW11bmljYXRpb25zLmNvbTCB
nzANBgkqhkiG9w0BAQEFAAOBjQAwgYkCgYEAx2Ru/IsJJMSXqt2T7kMGPQ33XDQr
x12slvuaeVVFC1edKISSrSSc4aecrKuFR+6v3ZjpzJ22EwAp6lUpaYfPM0XUCXf4
NIek+A8lmuScXvkdYcC1lX4Hkl7LQivJvUsMSqp6gOZj2cXwEV4N6+F1pFCtgNZV
iFwpGVNzDA+CSeECAwEAAaN7MHkwCQYDVR0TBAIwADAsBglghkgBhvhCAQ0EHxYd
T3BlblNTTCBHZW5lcmF0ZWQgQ2VydGlmaWNhdGUwHQYDVR0OBBYEFDIZFvDdLDSP
/hJdT+AM7sUGyLGMMB8GA1UdIwQYMBaAFAZfXccWr2L4LW5xA4ig1h0rBH+6MA0G
CSqGSIb3DQEBBQUAA4GBAK8u0pq54MrI4yXrMAteAulDLYQJEdG+jqSGv8cZqhjD
VbIHxWj/xjn3K9onhTSLe2ySj7qqnUTzDEeIegyx4Mdv66/Sq9BtJdX/QDdpK73y
bkpCMimYJ8fsNCXrIm+DUIIcCIh37DGCwgx3sSvJfWz/ldAQz46fLuuhpkD8wOyD
-----END CERTIFICATE-----
