Certificate:
    Data:
        Version: 3 (0x2)
        Serial Number: 15 (0xf)
        Signature Algorithm: sha1WithRSAEncryption
        Issuer: C=FR, ST=Some-State, L=Grenoble, O=Belledonne Communications, OU=LAB, CN=Jehan Monnier/emailAddress=jehan.monnier@belledonne-communications.com
        Validity
            Not Before: Sep 25 08:39:36 2017 GMT
            Not After : Sep 23 08:39:36 2027 GMT
        Subject: C=FR, ST=Some-State, L=Lorien, O=Internet Widgits Pty Ltd, CN=sip:galadrielle@sip.example.org
        Subject Public Key Info:
            Public Key Algorithm: rsaEncryption
            RSA Public Key: (2048 bit)
                Modulus (2048 bit):
                    00:ae:3c:ab:f2:34:4b:dd:3e:96:b4:0f:76:61:5f:
                    59:dd:d0:93:6f:05:04:a2:2e:f7:f5:2f:65:35:02:
                    f5:6f:ed:dd:46:bb:72:3e:7c:47:b5:37:15:1d:1d:
                    90:a7:dc:0f:bf:cc:a8:58:43:86:fb:b8:c7:7e:13:
                    7f:05:09:47:6b:bf:a1:d1:76:7d:7a:d3:09:3a:46:
                    78:22:08:49:cd:02:8d:80:10:ee:d1:18:3c:e4:df:
                    50:be:05:80:88:56:c3:d4:36:2c:05:5d:57:07:9a:
                    4a:13:99:7f:46:d9:0b:dd:81:51:29:bd:8e:3a:55:
                    b2:33:f2:e6:3e:1c:ce:f9:2f:80:68:ca:5a:78:c5:
                    e1:27:4a:b4:0b:65:9b:24:ee:df:8c:16:f0:74:dc:
                    fe:a5:9f:52:5a:a1:f9:09:1d:47:00:d9:8a:84:72:
                    e2:19:7b:cb:cd:62:b3:44:e3:4f:cf:9b:1c:a1:bc:
                    70:d3:e0:10:8b:f2:51:28:91:84:61:92:56:03:3a:
                    2c:bf:11:8d:b6:4b:c8:4f:1c:e7:75:54:b9:cd:f3:
                    d5:be:6b:af:6e:9f:ca:77:45:44:5c:55:6a:23:49:
                    e0:52:fc:30:3d:a9:a8:66:f1:d8:d0:a8:5b:97:3c:
                    a7:de:70:db:7b:85:c1:f5:8e:54:3c:f8:0f:3a:9f:
                    36:2d
                Exponent: 65537 (0x10001)
        X509v3 extensions:
            X509v3 Basic Constraints: 
                CA:FALSE
            Netscape Comment: 
                OpenSSL Generated Certificate
            X509v3 Subject Key Identifier: 
                33:D0:36:5B:62:9B:1C:4D:31:47:9E:C0:91:41:E3:AE:29:61:AB:DB
            X509v3 Authority Key Identifier: 
                keyid:06:5F:5D:C7:16:AF:62:F8:2D:6E:71:03:88:A0:D6:1D:2B:04:7F:BA

    Signature Algorithm: sha1WithRSAEncryption
        73:17:ec:83:67:5c:3a:85:c2:16:37:94:ff:dc:4f:4e:97:39:
        5c:07:96:95:5c:eb:f1:7f:98:c8:27:c3:ba:8a:7c:15:a3:c6:
        80:bd:1f:56:7e:4a:d2:de:e7:44:03:75:48:f1:10:89:46:eb:
        8b:b3:6e:f1:b7:00:67:43:7e:5d:d2:1d:84:67:e5:be:ff:40:
        14:92:c7:15:b5:5b:4b:70:b1:62:59:09:4b:28:72:b7:99:e3:
        7a:4c:ff:4f:8e:40:83:98:27:df:2d:5b:62:03:a0:a6:ee:71:
        47:2c:95:91:2c:a6:a4:8e:1c:57:6d:e8:e9:5a:76:cf:77:f5:
        fc:1e
-----BEGIN CERTIFICATE-----
MIIDsjCCAxugAwIBAgIBDzANBgkqhkiG9w0BAQUFADCBuzELMAkGA1UEBhMCRlIx
EzARBgNVBAgMClNvbWUtU3RhdGUxETAPBgNVBAcMCEdyZW5vYmxlMSIwIAYDVQQK
DBlCZWxsZWRvbm5lIENvbW11bmljYXRpb25zMQwwCgYDVQQLDANMQUIxFjAUBgNV
BAMMDUplaGFuIE1vbm5pZXIxOjA4BgkqhkiG9w0BCQEWK2plaGFuLm1vbm5pZXJA
YmVsbGVkb25uZS1jb21tdW5pY2F0aW9ucy5jb20wHhcNMTcwOTI1MDgzOTM2WhcN
MjcwOTIzMDgzOTM2WjCBgDELMAkGA1UEBhMCRlIxEzARBgNVBAgMClNvbWUtU3Rh
dGUxDzANBgNVBAcMBkxvcmllbjEhMB8GA1UECgwYSW50ZXJuZXQgV2lkZ2l0cyBQ
dHkgTHRkMSgwJgYDVQQDDB9zaXA6Z2FsYWRyaWVsbGVAc2lwLmV4YW1wbGUub3Jn
MIIBIjANBgkqhkiG9w0BAQEFAAOCAQ8AMIIBCgKCAQEArjyr8jRL3T6WtA92YV9Z
3dCTbwUEoi739S9lNQL1b+3dRrtyPnxHtTcVHR2Qp9wPv8yoWEOG+7jHfhN/BQlH
a7+h0XZ9etMJOkZ4IghJzQKNgBDu0Rg85N9QvgWAiFbD1DYsBV1XB5pKE5l/RtkL
3YFRKb2OOlWyM/LmPhzO+S+AaMpaeMXhJ0q0C2WbJO7fjBbwdNz+pZ9SWqH5CR1H
ANmKhHLiGXvLzWKzRONPz5scobxw0+AQi/JRKJGEYZJWAzosvxGNtkvITxzndVS5
zfPVvmuvbp/Kd0VEXFVqI0ngUvwwPamoZvHY0Khblzyn3nDbe4XB9Y5UPPgPOp82
LQIDAQABo3sweTAJBgNVHRMEAjAAMCwGCWCGSAGG+EIBDQQfFh1PcGVuU1NMIEdl
bmVyYXRlZCBDZXJ0aWZpY2F0ZTAdBgNVHQ4EFgQUM9A2W2KbHE0xR57AkUHjrilh
q9swHwYDVR0jBBgwFoAUBl9dxxavYvgtbnEDiKDWHSsEf7owDQYJKoZIhvcNAQEF
BQADgYEAcxfsg2dcOoXCFjeU/9xPTpc5XAeWlVzr8X+YyCfDuop8FaPGgL0fVn5K
0t7nRAN1SPEQiUbri7Nu8bcAZ0N+XdIdhGflvv9AFJLHFbVbS3CxYlkJSyhyt5nj
ekz/T45Ag5gn3y1bYgOgpu5xRyyVkSympI4cV23o6Vp2z3f1/B4=
-----END CERTIFICATE-----
