Certificate:
    Data:
        Version: 3 (0x2)
        Serial Number: 19 (0x13)
    Signature Algorithm: sha1WithRSAEncryption
        Issuer: C=FR, ST=Some-State, L=Grenoble, O=Belledonne Communications, OU=LAB, CN=Jehan Monnier/emailAddress=jehan.monnier@belledonne-communications.com
        Validity
            Not Before: Apr  3 13:55:30 2018 GMT
            Not After : Mar 31 13:55:30 2028 GMT
        Subject: C=FR, ST=Some-State, L=Grenoble, O=Internet Widgits Pty Ltd, CN=sip:gandalf@sip.example.org
        Subject Public Key Info:
            Public Key Algorithm: rsaEncryption
                Public-Key: (2048 bit)
                Modulus:
                    00:c4:b0:07:de:24:1a:46:3c:63:2c:f2:a6:9a:ba:
                    fd:3d:e4:f0:1e:96:6c:74:f7:ad:cf:b3:3c:51:31:
                    45:11:af:0a:ca:ba:f2:cc:ef:82:05:28:c3:5d:6c:
                    bf:65:47:27:ec:37:37:f3:ab:42:52:83:a0:e9:4f:
                    ef:99:cd:07:04:ee:bb:87:6d:40:a6:dd:2f:b5:79:
                    1b:f1:c1:3a:22:75:29:e3:9e:64:67:ae:bf:93:36:
                    a9:3a:0a:00:bc:4e:b6:ab:db:83:01:7f:35:5e:52:
                    2c:bc:21:52:d7:76:0b:48:1d:d7:09:90:be:1b:7c:
                    98:3f:a2:70:78:48:99:95:eb:5d:95:07:ca:6f:f7:
                    43:f0:c5:0d:3d:60:95:ef:6d:53:8f:7f:6c:95:2d:
                    51:b5:3c:84:3a:56:57:b2:2d:d8:6e:36:fe:66:3f:
                    e5:80:89:6d:98:e0:67:f6:ed:65:ab:dc:ad:fb:04:
                    90:2f:30:60:30:8b:9f:a1:a0:9b:b9:54:6b:ae:83:
                    41:38:18:60:a3:fe:32:ef:38:46:bc:44:0b:e1:ca:
                    4c:41:7e:e2:9c:35:36:eb:f7:54:83:67:c8:9f:83:
                    68:00:c3:58:ee:54:be:d6:05:d1:97:c8:e1:47:c0:
                    25:eb:55:a6:a0:1b:c6:86:35:ba:f5:7a:63:75:79:
                    7d:d7
                Exponent: 65537 (0x10001)
        X509v3 extensions:
            X509v3 Basic Constraints: 
                CA:FALSE
            Netscape Comment: 
                OpenSSL Generated Certificate
            X509v3 Subject Key Identifier: 
                47:91:DE:5F:F9:8A:85:B5:0F:68:02:38:5D:67:3F:ED:C6:3C:F2:66
            X509v3 Authority Key Identifier: 
                keyid:06:5F:5D:C7:16:AF:62:F8:2D:6E:71:03:88:A0:D6:1D:2B:04:7F:BA

            X509v3 Subject Alternative Name: 
                URI:sip:gandalf@sip.linphone.org, URI:sip:gandalf@sip.example.org
    Signature Algorithm: sha1WithRSAEncryption
         38:eb:34:2f:d3:fe:c6:8f:3f:8b:a3:4c:73:2c:84:75:1e:f0:
         c0:41:6a:78:63:ad:81:99:ac:cf:9a:27:28:4f:19:3c:81:7f:
         dd:81:31:f4:f3:6a:ee:6d:13:fd:99:3f:96:75:94:1f:44:e6:
         9c:1e:d8:9e:34:4d:e6:c9:1c:51:59:e2:6a:96:fc:84:95:d3:
         a3:0f:d7:38:db:89:2d:df:67:58:32:88:83:e8:76:7f:5c:28:
         08:3c:75:c0:e1:ae:68:78:0c:4d:9b:71:57:ee:76:99:80:69:
         73:7f:fd:fe:ec:e5:f1:f8:92:e4:1a:c1:8e:9e:70:3e:e3:de:
         1c:2f
-----BEGIN CERTIFICATE-----
MIID9zCCA2CgAwIBAgIBEzANBgkqhkiG9w0BAQUFADCBuzELMAkGA1UEBhMCRlIx
EzARBgNVBAgMClNvbWUtU3RhdGUxETAPBgNVBAcMCEdyZW5vYmxlMSIwIAYDVQQK
DBlCZWxsZWRvbm5lIENvbW11bmljYXRpb25zMQwwCgYDVQQLDANMQUIxFjAUBgNV
BAMMDUplaGFuIE1vbm5pZXIxOjA4BgkqhkiG9w0BCQEWK2plaGFuLm1vbm5pZXJA
YmVsbGVkb25uZS1jb21tdW5pY2F0aW9ucy5jb20wHhcNMTgwNDAzMTM1NTMwWhcN
MjgwMzMxMTM1NTMwWjB+MQswCQYDVQQGEwJGUjETMBEGA1UECAwKU29tZS1TdGF0
ZTERMA8GA1UEBwwIR3Jlbm9ibGUxITAfBgNVBAoMGEludGVybmV0IFdpZGdpdHMg
UHR5IEx0ZDEkMCIGA1UEAwwbc2lwOmdhbmRhbGZAc2lwLmV4YW1wbGUub3JnMIIB
IjANBgkqhkiG9w0BAQEFAAOCAQ8AMIIBCgKCAQEAxLAH3iQaRjxjLPKmmrr9PeTw
HpZsdPetz7M8UTFFEa8KyrryzO+CBSjDXWy/ZUcn7Dc386tCUoOg6U/vmc0HBO67
h21Apt0vtXkb8cE6InUp455kZ66/kzapOgoAvE62q9uDAX81XlIsvCFS13YLSB3X
CZC+G3yYP6JweEiZletdlQfKb/dD8MUNPWCV721Tj39slS1RtTyEOlZXsi3Ybjb+
Zj/lgIltmOBn9u1lq9yt+wSQLzBgMIufoaCbuVRrroNBOBhgo/4y7zhGvEQL4cpM
QX7inDU26/dUg2fIn4NoAMNY7lS+1gXRl8jhR8Al61WmoBvGhjW69XpjdXl91wID
AQABo4HCMIG/MAkGA1UdEwQCMAAwLAYJYIZIAYb4QgENBB8WHU9wZW5TU0wgR2Vu
ZXJhdGVkIENlcnRpZmljYXRlMB0GA1UdDgQWBBRHkd5f+YqFtQ9oAjhdZz/txjzy
ZjAfBgNVHSMEGDAWgBQGX13HFq9i+C1ucQOIoNYdKwR/ujBEBgNVHREEPTA7hhxz
aXA6Z2FuZGFsZkBzaXAubGlucGhvbmUub3JnhhtzaXA6Z2FuZGFsZkBzaXAuZXhh
bXBsZS5vcmcwDQYJKoZIhvcNAQEFBQADgYEAOOs0L9P+xo8/i6NMcyyEdR7wwEFq
eGOtgZmsz5onKE8ZPIF/3YEx9PNq7m0T/Zk/lnWUH0TmnB7YnjRN5skcUVniapb8
hJXTow/XONuJLd9nWDKIg+h2f1woCDx1wOGuaHgMTZtxV+52mYBpc3/9/uzl8fiS
5BrBjp5wPuPeHC8=
-----END CERTIFICATE-----
