Certificate:
    Data:
        Version: 3 (0x2)
        Serial Number: 13 (0xd)
    Signature Algorithm: sha256WithRSAEncryption
        Issuer: C=FR, ST=Some-State, L=Grenoble, O=Belledonne Communications, OU=LAB, CN=Jehan Monnier/emailAddress=jehan.monnier@belledonne-communications.com
        Validity
            Not Before: Nov 17 11:09:48 2016 GMT
            Not After : Nov 17 11:09:48 2017 GMT
        Subject: C=FR, ST=Some-State, L=Lorien, O=Internet Widgits Pty Ltd, CN=sip:galadrielle@sip.example.org
        Subject Public Key Info:
            Public Key Algorithm: rsaEncryption
                Public-Key: (2048 bit)
                Modulus:
                    00:ae:3c:ab:f2:34:4b:dd:3e:96:b4:0f:76:61:5f:
                    59:dd:d0:93:6f:05:04:a2:2e:f7:f5:2f:65:35:02:
                    f5:6f:ed:dd:46:bb:72:3e:7c:47:b5:37:15:1d:1d:
                    90:a7:dc:0f:bf:cc:a8:58:43:86:fb:b8:c7:7e:13:
                    7f:05:09:47:6b:bf:a1:d1:76:7d:7a:d3:09:3a:46:
                    78:22:08:49:cd:02:8d:80:10:ee:d1:18:3c:e4:df:
                    50:be:05:80:88:56:c3:d4:36:2c:05:5d:57:07:9a:
                    4a:13:99:7f:46:d9:0b:dd:81:51:29:bd:8e:3a:55:
                    b2:33:f2:e6:3e:1c:ce:f9:2f:80:68:ca:5a:78:c5:
                    e1:27:4a:b4:0b:65:9b:24:ee:df:8c:16:f0:74:dc:
                    fe:a5:9f:52:5a:a1:f9:09:1d:47:00:d9:8a:84:72:
                    e2:19:7b:cb:cd:62:b3:44:e3:4f:cf:9b:1c:a1:bc:
                    70:d3:e0:10:8b:f2:51:28:91:84:61:92:56:03:3a:
                    2c:bf:11:8d:b6:4b:c8:4f:1c:e7:75:54:b9:cd:f3:
                    d5:be:6b:af:6e:9f:ca:77:45:44:5c:55:6a:23:49:
                    e0:52:fc:30:3d:a9:a8:66:f1:d8:d0:a8:5b:97:3c:
                    a7:de:70:db:7b:85:c1:f5:8e:54:3c:f8:0f:3a:9f:
                    36:2d
                Exponent: 65537 (0x10001)
        X509v3 extensions:
            X509v3 Basic Constraints: 
                CA:FALSE
            Netscape Comment: 
                OpenSSL Generated Certificate
            X509v3 Subject Key Identifier: 
                33:D0:36:5B:62:9B:1C:4D:31:47:9E:C0:91:41:E3:AE:29:61:AB:DB
            X509v3 Authority Key Identifier: 
                keyid:06:5F:5D:C7:16:AF:62:F8:2D:6E:71:03:88:A0:D6:1D:2B:04:7F:BA

    Signature Algorithm: sha256WithRSAEncryption
         ba:a1:0a:7e:8e:a6:1e:e8:3d:5f:da:28:a6:57:3e:cb:50:79:
         06:8f:19:1b:df:b0:d2:e6:12:1f:ef:a2:bd:de:40:07:e2:5d:
         3d:64:41:34:10:24:3c:85:62:8e:69:0c:99:89:b7:ce:a4:f6:
         08:6d:37:8a:51:98:bd:46:b7:1b:dd:b2:ba:f7:f4:2f:47:d5:
         74:3f:c5:fe:95:60:b3:42:51:4f:d1:ac:ed:a4:c6:f6:16:f3:
         49:b6:8d:64:7f:76:e1:95:5e:ef:eb:46:4b:d7:a5:59:1d:0d:
         ba:c5:07:5f:c3:db:2e:40:aa:6e:34:0c:1a:1d:4b:72:e3:ac:
         61:b5
-----BEGIN CERTIFICATE-----
MIIDsjCCAxugAwIBAgIBDTANBgkqhkiG9w0BAQsFADCBuzELMAkGA1UEBhMCRlIx
EzARBgNVBAgMClNvbWUtU3RhdGUxETAPBgNVBAcMCEdyZW5vYmxlMSIwIAYDVQQK
DBlCZWxsZWRvbm5lIENvbW11bmljYXRpb25zMQwwCgYDVQQLDANMQUIxFjAUBgNV
BAMMDUplaGFuIE1vbm5pZXIxOjA4BgkqhkiG9w0BCQEWK2plaGFuLm1vbm5pZXJA
YmVsbGVkb25uZS1jb21tdW5pY2F0aW9ucy5jb20wHhcNMTYxMTE3MTEwOTQ4WhcN
MTcxMTE3MTEwOTQ4WjCBgDELMAkGA1UEBhMCRlIxEzARBgNVBAgMClNvbWUtU3Rh
dGUxDzANBgNVBAcMBkxvcmllbjEhMB8GA1UECgwYSW50ZXJuZXQgV2lkZ2l0cyBQ
dHkgTHRkMSgwJgYDVQQDDB9zaXA6Z2FsYWRyaWVsbGVAc2lwLmV4YW1wbGUub3Jn
MIIBIjANBgkqhkiG9w0BAQEFAAOCAQ8AMIIBCgKCAQEArjyr8jRL3T6WtA92YV9Z
3dCTbwUEoi739S9lNQL1b+3dRrtyPnxHtTcVHR2Qp9wPv8yoWEOG+7jHfhN/BQlH
a7+h0XZ9etMJOkZ4IghJzQKNgBDu0Rg85N9QvgWAiFbD1DYsBV1XB5pKE5l/RtkL
3YFRKb2OOlWyM/LmPhzO+S+AaMpaeMXhJ0q0C2WbJO7fjBbwdNz+pZ9SWqH5CR1H
ANmKhHLiGXvLzWKzRONPz5scobxw0+AQi/JRKJGEYZJWAzosvxGNtkvITxzndVS5
zfPVvmuvbp/Kd0VEXFVqI0ngUvwwPamoZvHY0Khblzyn3nDbe4XB9Y5UPPgPOp82
LQIDAQABo3sweTAJBgNVHRMEAjAAMCwGCWCGSAGG+EIBDQQfFh1PcGVuU1NMIEdl
bmVyYXRlZCBDZXJ0aWZpY2F0ZTAdBgNVHQ4EFgQUM9A2W2KbHE0xR57AkUHjrilh
q9swHwYDVR0jBBgwFoAUBl9dxxavYvgtbnEDiKDWHSsEf7owDQYJKoZIhvcNAQEL
BQADgYEAuqEKfo6mHug9X9ooplc+y1B5Bo8ZG9+w0uYSH++ivd5AB+JdPWRBNBAk
PIVijmkMmYm3zqT2CG03ilGYvUa3G92yuvf0L0fVdD/F/pVgs0JRT9Gs7aTG9hbz
SbaNZH924ZVe7+tGS9elWR0NusUHX8PbLkCqbjQMGh1LcuOsYbU=
-----END CERTIFICATE-----
