Certificate:
    Data:
        Version: 1 (0x0)
        Serial Number: 4096 (0x1000)
    Signature Algorithm: sha256WithRSAEncryption
        Issuer: C=FR, ST=France, L=Grenoble, O=Belledonne Communications, CN=Belledonne Communications unofficial rootca
        Validity
            Not Before: Nov 17 11:33:46 2016 GMT
            Not After : Nov 27 11:33:46 2017 GMT
        Subject: C=FR, ST=Some-State, L=Lorien, O=Internet Widgits Pty Ltd, CN=sip:galadrielle@sip.example.org
        Subject Public Key Info:
            Public Key Algorithm: rsaEncryption
                Public-Key: (2048 bit)
                Modulus:
                    00:ae:3c:ab:f2:34:4b:dd:3e:96:b4:0f:76:61:5f:
                    59:dd:d0:93:6f:05:04:a2:2e:f7:f5:2f:65:35:02:
                    f5:6f:ed:dd:46:bb:72:3e:7c:47:b5:37:15:1d:1d:
                    90:a7:dc:0f:bf:cc:a8:58:43:86:fb:b8:c7:7e:13:
                    7f:05:09:47:6b:bf:a1:d1:76:7d:7a:d3:09:3a:46:
                    78:22:08:49:cd:02:8d:80:10:ee:d1:18:3c:e4:df:
                    50:be:05:80:88:56:c3:d4:36:2c:05:5d:57:07:9a:
                    4a:13:99:7f:46:d9:0b:dd:81:51:29:bd:8e:3a:55:
                    b2:33:f2:e6:3e:1c:ce:f9:2f:80:68:ca:5a:78:c5:
                    e1:27:4a:b4:0b:65:9b:24:ee:df:8c:16:f0:74:dc:
                    fe:a5:9f:52:5a:a1:f9:09:1d:47:00:d9:8a:84:72:
                    e2:19:7b:cb:cd:62:b3:44:e3:4f:cf:9b:1c:a1:bc:
                    70:d3:e0:10:8b:f2:51:28:91:84:61:92:56:03:3a:
                    2c:bf:11:8d:b6:4b:c8:4f:1c:e7:75:54:b9:cd:f3:
                    d5:be:6b:af:6e:9f:ca:77:45:44:5c:55:6a:23:49:
                    e0:52:fc:30:3d:a9:a8:66:f1:d8:d0:a8:5b:97:3c:
                    a7:de:70:db:7b:85:c1:f5:8e:54:3c:f8:0f:3a:9f:
                    36:2d
                Exponent: 65537 (0x10001)
    Signature Algorithm: sha256WithRSAEncryption
         4a:f6:1f:8c:a8:fa:f6:ed:85:14:2c:12:14:69:7c:ec:ff:17:
         57:e5:bd:a6:e1:50:7e:38:01:d7:a9:92:7c:e2:43:03:f7:7f:
         53:f9:6a:de:bf:55:7b:62:45:fc:55:35:20:8f:6c:b5:83:a6:
         30:56:84:ba:b0:cb:df:1e:6f:e2:ca:8a:9c:94:96:5a:c0:fa:
         18:67:b4:e3:6b:87:09:2a:8e:e2:d3:69:cc:67:9d:ba:e3:48:
         f7:1c:81:72:90:c8:8c:24:ff:90:be:14:50:6a:f4:1f:5b:66:
         91:5c:06:ff:fc:5a:53:22:e8:fe:86:38:92:82:18:87:2d:0c:
         78:90:4a:7a:92:3e:48:43:28:20:83:fa:6f:35:e3:b8:54:e9:
         f7:a7:91:fd:63:fa:13:0b:31:45:5c:69:33:56:c3:7e:f9:b5:
         57:f4:b9:3a:cb:7c:71:1f:dd:a1:0c:77:fc:f9:69:34:a1:7e:
         2b:a6:05:cd:b9:c9:bb:68:f0:c6:72:54:34:42:94:4d:3f:c6:
         d7:86:8b:da:d5:2a:31:28:80:6c:84:3b:60:ce:e4:4d:5a:53:
         4d:b7:31:df:98:d0:d6:7c:c0:36:f3:fd:7c:a0:da:12:ee:9c:
         1a:83:c9:62:22:ad:5b:92:7c:70:c2:49:92:05:87:ee:02:f9:
         23:a7:55:86:65:86:96:53:7e:91:8a:2c:0f:18:9a:34:0f:29:
         8c:0d:0e:4d:28:62:7b:65:ed:62:b8:d0:bf:13:5f:e6:a9:4f:
         d6:9c:20:73:2c:b6:28:90:10:c3:20:30:15:14:68:27:64:ee:
         74:2a:01:9d:ea:17:b8:f0:d9:d0:ee:61:f2:de:37:a4:c8:24:
         96:3f:60:6a:51:9c:03:9a:12:c4:d1:72:0e:40:46:2e:82:a7:
         7d:51:df:8e:3b:dd:73:83:31:cd:93:4e:64:ca:9b:6a:e8:2f:
         b5:6c:3f:e5:b1:6a:d8:fd:26:7b:4c:84:64:56:11:de:7a:de:
         d2:77:7f:ce:98:eb:04:58:4b:15:9b:29:5a:71:fa:a8:50:72:
         b7:28:70:a2:77:20:ad:56:34:ab:69:27:47:87:09:67:f6:e1:
         a3:66:d8:fc:4f:00:7c:8e:c1:65:c3:c5:8c:ef:2b:d1:a4:90:
         ef:ea:5e:9a:ca:8b:95:44:92:60:a1:f8:0e:e8:2d:ca:b1:07:
         57:23:b5:c6:e6:09:00:ac:7b:6f:fa:23:da:35:29:5f:26:78:
         b1:04:64:0c:c6:96:41:4e:da:82:fd:2c:dd:5b:43:24:e0:ef:
         1f:a0:8e:41:7d:b6:71:49:96:29:8e:67:aa:53:30:f6:4e:10:
         56:26:43:72:fd:06:27:fb
-----BEGIN CERTIFICATE-----
MIIEgjCCAmoCAhAAMA0GCSqGSIb3DQEBCwUAMIGLMQswCQYDVQQGEwJGUjEPMA0G
A1UECAwGRnJhbmNlMREwDwYDVQQHDAhHcmVub2JsZTEiMCAGA1UECgwZQmVsbGVk
b25uZSBDb21tdW5pY2F0aW9uczE0MDIGA1UEAwwrQmVsbGVkb25uZSBDb21tdW5p
Y2F0aW9ucyB1bm9mZmljaWFsIHJvb3RjYTAeFw0xNjExMTcxMTMzNDZaFw0xNzEx
MjcxMTMzNDZaMIGAMQswCQYDVQQGEwJGUjETMBEGA1UECAwKU29tZS1TdGF0ZTEP
MA0GA1UEBwwGTG9yaWVuMSEwHwYDVQQKDBhJbnRlcm5ldCBXaWRnaXRzIFB0eSBM
dGQxKDAmBgNVBAMMH3NpcDpnYWxhZHJpZWxsZUBzaXAuZXhhbXBsZS5vcmcwggEi
MA0GCSqGSIb3DQEBAQUAA4IBDwAwggEKAoIBAQCuPKvyNEvdPpa0D3ZhX1nd0JNv
BQSiLvf1L2U1AvVv7d1Gu3I+fEe1NxUdHZCn3A+/zKhYQ4b7uMd+E38FCUdrv6HR
dn160wk6RngiCEnNAo2AEO7RGDzk31C+BYCIVsPUNiwFXVcHmkoTmX9G2QvdgVEp
vY46VbIz8uY+HM75L4Boylp4xeEnSrQLZZsk7t+MFvB03P6ln1JaofkJHUcA2YqE
cuIZe8vNYrNE40/PmxyhvHDT4BCL8lEokYRhklYDOiy/EY22S8hPHOd1VLnN89W+
a69un8p3RURcVWojSeBS/DA9qahm8djQqFuXPKfecNt7hcH1jlQ8+A86nzYtAgMB
AAEwDQYJKoZIhvcNAQELBQADggIBAEr2H4yo+vbthRQsEhRpfOz/F1flvabhUH44
AdepknziQwP3f1P5at6/VXtiRfxVNSCPbLWDpjBWhLqwy98eb+LKipyUllrA+hhn
tONrhwkqjuLTacxnnbrjSPccgXKQyIwk/5C+FFBq9B9bZpFcBv/8WlMi6P6GOJKC
GIctDHiQSnqSPkhDKCCD+m8147hU6fenkf1j+hMLMUVcaTNWw375tVf0uTrLfHEf
3aEMd/z5aTShfiumBc25ybto8MZyVDRClE0/xteGi9rVKjEogGyEO2DO5E1aU023
Md+Y0NZ8wDbz/Xyg2hLunBqDyWIirVuSfHDCSZIFh+4C+SOnVYZlhpZTfpGKLA8Y
mjQPKYwNDk0oYntl7WK40L8TX+apT9acIHMstiiQEMMgMBUUaCdk7nQqAZ3qF7jw
2dDuYfLeN6TIJJY/YGpRnAOaEsTRcg5ARi6Cp31R34473XODMc2TTmTKm2roL7Vs
P+Wxatj9JntMhGRWEd563tJ3f86Y6wRYSxWbKVpx+qhQcrcocKJ3IK1WNKtpJ0eH
CWf24aNm2PxPAHyOwWXDxYzvK9GkkO/qXprKi5VEkmCh+A7oLcqxB1cjtcbmCQCs
e2/6I9o1KV8meLEEZAzGlkFO2oL9LN1bQyTg7x+gjkF9tnFJlimOZ6pTMPZOEFYm
Q3L9Bif7
-----END CERTIFICATE-----
