Certificate:
    Data:
        Version: 3 (0x2)
        Serial Number: 14 (0xe)
    Signature Algorithm: sha256WithRSAEncryption
        Issuer: C=FR, ST=Some-State, L=Grenoble, O=Belledonne Communications, OU=LAB, CN=Jehan Monnier/emailAddress=jehan.monnier@belledonne-communications.com
        Validity
            Not Before: Sep 20 14:00:00 2016 GMT
            Not After : Sep 20 14:00:00 2017 GMT
        Subject: C=FR, ST=Rhone-Alpes Auvergne, L=Grenoble, O=Belledonne Communications, CN=sip:sip.example.org/emailAddress=info@belledonne-communications.com
        Subject Public Key Info:
            Public Key Algorithm: rsaEncryption
                Public-Key: (2048 bit)
                Modulus:
                    00:9e:31:b6:30:07:0e:de:8b:dd:41:66:ec:52:84:
                    37:2c:bf:98:bc:8f:d3:8e:0d:0f:97:de:b0:4a:c6:
                    26:c3:c5:29:4d:4e:ed:6c:0c:fe:06:61:49:16:67:
                    23:90:c9:5b:00:49:f0:e0:5e:42:81:2a:73:c7:c7:
                    11:9e:41:53:28:46:73:d1:12:8a:bb:bf:e7:f5:84:
                    6a:06:e6:5c:02:de:95:1d:a0:fc:a5:f7:bf:e8:c8:
                    c9:95:9f:07:c3:96:96:09:4d:11:f4:48:a3:89:49:
                    30:c0:6b:e6:ad:a4:0f:b7:5a:f2:20:78:2c:35:da:
                    fe:4c:83:70:93:65:09:b1:bb:17:46:72:1d:22:c1:
                    07:b3:4d:93:cd:cf:8a:6d:12:7f:54:b3:48:df:d6:
                    02:6f:f2:9c:a0:6c:5e:09:6b:26:63:94:09:cf:0c:
                    42:e6:fa:99:08:c1:9f:18:4b:54:fb:2c:0a:cc:c0:
                    b2:a6:1d:47:d9:1d:f2:53:e2:27:f8:71:41:f6:45:
                    e6:50:dd:47:4b:71:a2:bb:94:74:0e:e1:c4:fd:f6:
                    c3:41:c5:4c:1e:f9:8b:9c:c7:7e:80:59:f9:5b:e7:
                    ab:76:fd:5a:9d:d8:bd:6f:f9:58:78:e4:72:82:44:
                    85:32:7d:c2:27:f6:52:69:69:e8:e6:70:00:aa:64:
                    45:6f
                Exponent: 65537 (0x10001)
        X509v3 extensions:
            X509v3 Basic Constraints: 
                CA:FALSE
            Netscape Comment: 
                OpenSSL Generated Certificate
            X509v3 Subject Key Identifier: 
                CB:57:BF:89:AF:D9:DB:CC:E0:F8:79:71:AD:7F:03:63:20:0A:49:63
            X509v3 Authority Key Identifier: 
                keyid:06:5F:5D:C7:16:AF:62:F8:2D:6E:71:03:88:A0:D6:1D:2B:04:7F:BA

    Signature Algorithm: sha256WithRSAEncryption
         3e:6c:d5:87:db:04:2b:1b:73:93:9e:ea:fe:10:4a:38:9b:3e:
         63:8f:f2:8d:8a:d0:bc:b2:4a:63:e0:3c:31:71:00:cf:81:4a:
         ae:4c:51:fc:5d:51:b7:0a:86:48:5b:1f:a6:cc:ca:d2:c3:95:
         da:4b:34:dc:8c:dd:1b:27:fb:d2:a8:e4:5e:5a:cc:01:f0:63:
         58:74:72:1b:5f:c9:51:87:49:dd:ff:13:77:4c:2f:59:38:7f:
         0a:48:94:17:67:b9:7e:6a:1f:c8:29:67:e0:d4:79:c9:8c:5b:
         25:09:1d:46:f2:3a:e4:29:85:73:32:c5:94:72:59:31:57:9c:
         65:d5
-----BEGIN CERTIFICATE-----
MIID5jCCA0+gAwIBAgIBDjANBgkqhkiG9w0BAQsFADCBuzELMAkGA1UEBhMCRlIx
EzARBgNVBAgMClNvbWUtU3RhdGUxETAPBgNVBAcMCEdyZW5vYmxlMSIwIAYDVQQK
DBlCZWxsZWRvbm5lIENvbW11bmljYXRpb25zMQwwCgYDVQQLDANMQUIxFjAUBgNV
BAMMDUplaGFuIE1vbm5pZXIxOjA4BgkqhkiG9w0BCQEWK2plaGFuLm1vbm5pZXJA
YmVsbGVkb25uZS1jb21tdW5pY2F0aW9ucy5jb20wHhcNMTYwOTIwMTQwMDAwWhcN
MTcwOTIwMTQwMDAwWjCBtDELMAkGA1UEBhMCRlIxHTAbBgNVBAgMFFJob25lLUFs
cGVzIEF1dmVyZ25lMREwDwYDVQQHDAhHcmVub2JsZTEiMCAGA1UECgwZQmVsbGVk
b25uZSBDb21tdW5pY2F0aW9uczEcMBoGA1UEAwwTc2lwOnNpcC5leGFtcGxlLm9y
ZzExMC8GCSqGSIb3DQEJARYiaW5mb0BiZWxsZWRvbm5lLWNvbW11bmljYXRpb25z
LmNvbTCCASIwDQYJKoZIhvcNAQEBBQADggEPADCCAQoCggEBAJ4xtjAHDt6L3UFm
7FKENyy/mLyP044ND5fesErGJsPFKU1O7WwM/gZhSRZnI5DJWwBJ8OBeQoEqc8fH
EZ5BUyhGc9ESiru/5/WEagbmXALelR2g/KX3v+jIyZWfB8OWlglNEfRIo4lJMMBr
5q2kD7da8iB4LDXa/kyDcJNlCbG7F0ZyHSLBB7NNk83Pim0Sf1SzSN/WAm/ynKBs
XglrJmOUCc8MQub6mQjBnxhLVPssCszAsqYdR9kd8lPiJ/hxQfZF5lDdR0txoruU
dA7hxP32w0HFTB75i5zHfoBZ+Vvnq3b9Wp3YvW/5WHjkcoJEhTJ9wif2Umlp6OZw
AKpkRW8CAwEAAaN7MHkwCQYDVR0TBAIwADAsBglghkgBhvhCAQ0EHxYdT3BlblNT
TCBHZW5lcmF0ZWQgQ2VydGlmaWNhdGUwHQYDVR0OBBYEFMtXv4mv2dvM4Ph5ca1/
A2MgCkljMB8GA1UdIwQYMBaAFAZfXccWr2L4LW5xA4ig1h0rBH+6MA0GCSqGSIb3
DQEBCwUAA4GBAD5s1YfbBCsbc5Oe6v4QSjibPmOP8o2K0LyySmPgPDFxAM+BSq5M
UfxdUbcKhkhbH6bMytLDldpLNNyM3Rsn+9Ko5F5azAHwY1h0chtfyVGHSd3/E3dM
L1k4fwpIlBdnuX5qH8gpZ+DUecmMWyUJHUbyOuQphXMyxZRyWTFXnGXV
-----END CERTIFICATE-----
