Certificate:
    Data:
        Version: 3 (0x2)
        Serial Number: 16 (0x10)
    Signature Algorithm: sha256WithRSAEncryption
        Issuer: C=FR, ST=Some-State, L=Grenoble, O=Belledonne Communications, OU=LAB, CN=Jehan Monnier/emailAddress=jehan.monnier@belledonne-communications.com
        Validity
            Not Before: Mar 21 16:35:56 2018 GMT
            Not After : Mar 18 16:35:56 2028 GMT
        Subject: C=FR, ST=Lorien, O=Elfes, CN=sip:galadrielle@sip.example.org
        Subject Public Key Info:
            Public Key Algorithm: rsaEncryption
                Public-Key: (2048 bit)
                Modulus:
                    00:e5:0b:bd:b3:f7:e7:c2:1f:27:40:1f:57:7f:0b:
                    47:67:08:54:aa:6f:78:f9:02:32:10:fa:0c:fd:4a:
                    0f:3c:a3:f2:34:d0:60:93:1c:c5:fe:25:a5:66:7f:
                    02:11:23:cc:98:b2:34:3e:1b:31:8a:f4:9d:d6:89:
                    a6:41:d5:8f:fc:db:24:0f:61:af:e2:15:7b:71:d7:
                    10:3e:25:ea:a4:dd:f6:c5:6b:ac:b8:a8:f5:34:fe:
                    a2:7e:fc:8e:b5:99:55:2a:74:c4:55:3f:9a:ae:a0:
                    62:b3:03:50:aa:39:dd:8c:62:22:ac:3d:0d:60:d0:
                    da:49:0d:31:79:01:e4:59:9b:54:d8:78:e6:90:3d:
                    8a:d6:1b:6c:1f:4e:4e:d7:76:a2:16:e7:37:d8:c8:
                    cf:33:95:b9:eb:fe:e0:b5:10:6f:b6:0d:31:a5:d4:
                    d5:86:07:1b:05:43:f1:42:0b:f7:ba:20:96:45:48:
                    ec:6f:c9:29:8c:fe:15:55:d8:26:f2:20:c6:db:37:
                    67:e6:42:de:4b:66:fa:68:a1:4c:6f:39:01:56:92:
                    5c:7d:68:2d:58:85:4a:67:a5:03:cb:c5:1d:22:7c:
                    00:24:cd:49:3b:68:af:1a:0f:cf:ed:09:9f:74:7a:
                    54:69:6c:2e:bf:72:76:46:b0:26:24:14:e0:74:8e:
                    0e:23
                Exponent: 65537 (0x10001)
        X509v3 extensions:
            X509v3 Basic Constraints: 
                CA:FALSE
            Netscape Comment: 
                OpenSSL Generated Certificate
            X509v3 Subject Key Identifier: 
                22:E0:9B:5C:30:1A:B0:02:A3:88:63:73:16:01:60:E1:16:1A:8A:AD
            X509v3 Authority Key Identifier: 
                keyid:06:5F:5D:C7:16:AF:62:F8:2D:6E:71:03:88:A0:D6:1D:2B:04:7F:BA

    Signature Algorithm: sha256WithRSAEncryption
         12:78:7f:19:e2:38:d1:aa:9d:fe:c7:30:fb:00:00:ce:ce:28:
         66:fc:fe:d2:fb:3c:f8:af:68:83:11:96:30:ab:97:f9:f0:cd:
         09:67:12:4f:9f:97:ad:39:1c:a2:d2:f2:8c:38:71:be:1f:0a:
         c8:12:93:8b:42:d7:1a:3a:29:6e:01:08:50:44:a3:cc:09:39:
         63:90:5f:20:09:70:a8:70:ed:91:1e:78:1b:f3:5c:2d:84:a8:
         6e:71:ff:36:0b:fa:b5:26:63:8b:d4:80:43:f0:4a:89:86:d5:
         37:3b:23:c2:2b:40:14:04:e6:67:5e:a5:61:68:8e:03:b7:4c:
         cd:16
-----BEGIN CERTIFICATE-----
MIIDiTCCAvKgAwIBAgIBEDANBgkqhkiG9w0BAQsFADCBuzELMAkGA1UEBhMCRlIx
EzARBgNVBAgMClNvbWUtU3RhdGUxETAPBgNVBAcMCEdyZW5vYmxlMSIwIAYDVQQK
DBlCZWxsZWRvbm5lIENvbW11bmljYXRpb25zMQwwCgYDVQQLDANMQUIxFjAUBgNV
BAMMDUplaGFuIE1vbm5pZXIxOjA4BgkqhkiG9w0BCQEWK2plaGFuLm1vbm5pZXJA
YmVsbGVkb25uZS1jb21tdW5pY2F0aW9ucy5jb20wHhcNMTgwMzIxMTYzNTU2WhcN
MjgwMzE4MTYzNTU2WjBYMQswCQYDVQQGEwJGUjEPMA0GA1UECAwGTG9yaWVuMQ4w
DAYDVQQKDAVFbGZlczEoMCYGA1UEAwwfc2lwOmdhbGFkcmllbGxlQHNpcC5leGFt
cGxlLm9yZzCCASIwDQYJKoZIhvcNAQEBBQADggEPADCCAQoCggEBAOULvbP358If
J0AfV38LR2cIVKpvePkCMhD6DP1KDzyj8jTQYJMcxf4lpWZ/AhEjzJiyND4bMYr0
ndaJpkHVj/zbJA9hr+IVe3HXED4l6qTd9sVrrLio9TT+on78jrWZVSp0xFU/mq6g
YrMDUKo53YxiIqw9DWDQ2kkNMXkB5FmbVNh45pA9itYbbB9OTtd2ohbnN9jIzzOV
uev+4LUQb7YNMaXU1YYHGwVD8UIL97oglkVI7G/JKYz+FVXYJvIgxts3Z+ZC3ktm
+mihTG85AVaSXH1oLViFSmelA8vFHSJ8ACTNSTtorxoPz+0Jn3R6VGlsLr9ydkaw
JiQU4HSODiMCAwEAAaN7MHkwCQYDVR0TBAIwADAsBglghkgBhvhCAQ0EHxYdT3Bl
blNTTCBHZW5lcmF0ZWQgQ2VydGlmaWNhdGUwHQYDVR0OBBYEFCLgm1wwGrACo4hj
cxYBYOEWGoqtMB8GA1UdIwQYMBaAFAZfXccWr2L4LW5xA4ig1h0rBH+6MA0GCSqG
SIb3DQEBCwUAA4GBABJ4fxniONGqnf7HMPsAAM7OKGb8/tL7PPivaIMRljCrl/nw
zQlnEk+fl605HKLS8ow4cb4fCsgSk4tC1xo6KW4BCFBEo8wJOWOQXyAJcKhw7ZEe
eBvzXC2EqG5x/zYL+rUmY4vUgEPwSomG1Tc7I8IrQBQE5mdepWFojgO3TM0W
-----END CERTIFICATE-----
